; Function Attrs: nounwind uwtable
define noundef ptr @entity_norm(ptr noundef writeonly %0, ptr noundef %1) local_unnamed_addr #0 {
  %3 = tail call i64 @strlen(ptr noundef nonnull dereferenceable(1) %1) #15
  %4 = tail call ptr @cli_hashtab_find(ptr noundef nonnull @entities_htable, ptr noundef %1, i64 noundef %3) #16
  %.not = icmp eq ptr %4, null
  br i1 %.not, label %34, label %5

5:                                                ; preds = %2
  %6 = load ptr, ptr %4, align 8
  %.not12 = icmp eq ptr %6, null
  br i1 %.not12, label %34, label %7

7:                                                ; preds = %5
  %8 = getelementptr inbounds i8, ptr %4, i64 8
  %9 = load i64, ptr %8, align 8
  %10 = trunc i64 %9 to i16
  %.not.i = icmp eq i16 %10, 0
  br i1 %.not.i, label %u16_normalize.exit, label %11

11:                                               ; preds = %7
  %12 = icmp ult i16 %10, 255
  br i1 %12, label %13, label %16

13:                                               ; preds = %11
  %14 = trunc i64 %9 to i8
  %15 = getelementptr inbounds i8, ptr %0, i64 1
  store i8 %14, ptr %0, align 1
  br label %u16_normalize.exit.thread

16:                                               ; preds = %11
  switch i16 %10, label %19 [
    i16 -242, label %17
    i16 -430, label %17
    i16 12290, label %17
  ]

17:                                               ; preds = %16, %16, %16
  %18 = getelementptr inbounds i8, ptr %0, i64 1
  store i8 46, ptr %0, align 1
  br label %u16_normalize.exit.thread

19:                                               ; preds = %16
  store i8 38, ptr %0, align 1
  %20 = getelementptr inbounds i8, ptr %0, i64 1
  store i8 35, ptr %20, align 1
  %21 = getelementptr inbounds i8, ptr %0, i64 2
  store i8 120, ptr %21, align 1
  %22 = getelementptr inbounds i8, ptr %0, i64 7
  store i8 59, ptr %22, align 1
  br label %23

23:                                               ; preds = %23, %19
  %.036.i = phi i64 [ 6, %19 ], [ %30, %23 ]
  %.03135.i = phi i16 [ %10, %19 ], [ %29, %23 ]
  %24 = and i16 %.03135.i, 15
  %25 = zext nneg i16 %24 to i64
  %26 = getelementptr inbounds [16 x i8], ptr @tohex, i64 0, i64 %25
  %27 = load i8, ptr %26, align 1
  %28 = getelementptr inbounds i8, ptr %0, i64 %.036.i
  store i8 %27, ptr %28, align 1
  %29 = lshr i16 %.03135.i, 4
  %30 = add nsw i64 %.036.i, -1
  %31 = icmp ugt i64 %30, 2
  br i1 %31, label %23, label %32

32:                                               ; preds = %23
  %33 = getelementptr inbounds i8, ptr %0, i64 8
  br label %u16_normalize.exit.thread

u16_normalize.exit:                               ; preds = %7
  %.not13 = icmp eq ptr %0, null
  br i1 %.not13, label %34, label %u16_normalize.exit.thread

u16_normalize.exit.thread:                        ; preds = %32, %17, %13, %u16_normalize.exit
  %.029.i16 = phi ptr [ %0, %u16_normalize.exit ], [ %33, %32 ], [ %18, %17 ], [ %15, %13 ]
  store i8 0, ptr %.029.i16, align 1
  br label %34

34:                                               ; preds = %2, %5, %u16_normalize.exit, %u16_normalize.exit.thread
  %.0 = phi ptr [ %0, %u16_normalize.exit.thread ], [ null, %u16_normalize.exit ], [ null, %5 ], [ null, %2 ]
  ret ptr %.0
}